; Function Attrs: mustprogress uwtable
define void @_ZNK32pxrInternal_v0_24__pxrReserved__8TsSpline11GetTypeNameB5cxx11Ev(ptr dead_on_unwind noalias writable sret(%"class.std::__cxx11::basic_string") align 8 %0, ptr nocapture noundef nonnull readonly align 8 dereferenceable(16) %1) local_unnamed_addr #3 align 2 personality ptr @__gxx_personality_v0 {
  %3 = alloca %"class.pxrInternal_v0_24__pxrReserved__::VtValue", align 8
  call void @llvm.lifetime.start.p0(i64 16, ptr nonnull %3)
  %4 = load ptr, ptr %1, align 8
  %5 = tail call noundef nonnull align 8 dereferenceable(24) ptr @_ZNK32pxrInternal_v0_24__pxrReserved__18TsSpline_KeyFrames12GetKeyFramesEv(ptr noundef nonnull align 8 dereferenceable(136) %4)
  %6 = load ptr, ptr %5, align 8
  %7 = getelementptr inbounds nuw i8, ptr %5, i64 8
  %8 = load ptr, ptr %7, align 8
  %9 = icmp eq ptr %6, %8
  br i1 %9, label %_ZNK32pxrInternal_v0_24__pxrReserved__8TsSpline9GetTypeidEv.exit, label %10

10:                                               ; preds = %2
  call void @_ZNK32pxrInternal_v0_24__pxrReserved__10TsKeyFrame8GetValueEv(ptr dead_on_unwind nonnull writable sret(%"class.pxrInternal_v0_24__pxrReserved__::VtValue") align 8 %3, ptr noundef nonnull align 8 dereferenceable(72) %6)
  %11 = invoke noundef nonnull align 8 dereferenceable(16) ptr @_ZNK32pxrInternal_v0_24__pxrReserved__7VtValue9GetTypeidEv(ptr noundef nonnull align 8 dereferenceable(16) %3)
          to label %12 unwind label %26

12:                                               ; preds = %10
  %13 = getelementptr inbounds nuw i8, ptr %3, i64 8
  %14 = load ptr, ptr %13, align 8
  %15 = ptrtoint ptr %14 to i64
  %.not.i.i.i = icmp eq ptr %14, null
  %16 = and i64 %15, 3
  %17 = icmp eq i64 %16, 3
  %or.cond.i.i.i = or i1 %.not.i.i.i, %17
  br i1 %or.cond.i.i.i, label %_ZNK32pxrInternal_v0_24__pxrReserved__8TsSpline9GetTypeidEv.exit, label %18

18:                                               ; preds = %12
  %19 = and i64 %15, -8
  %20 = inttoptr i64 %19 to ptr
  %21 = getelementptr inbounds nuw i8, ptr %20, i64 32
  %22 = load ptr, ptr %21, align 8
  invoke void %22(ptr noundef nonnull align 8 dereferenceable(8) %3)
          to label %_ZNK32pxrInternal_v0_24__pxrReserved__8TsSpline9GetTypeidEv.exit unwind label %23

23:                                               ; preds = %18
  %24 = landingpad { ptr, i32 }
          catch ptr null
  %25 = extractvalue { ptr, i32 } %24, 0
  call void @__clang_call_terminate(ptr %25) #22
  unreachable

26:                                               ; preds = %10
  %27 = landingpad { ptr, i32 }
          cleanup
  call void @_ZN32pxrInternal_v0_24__pxrReserved__7VtValueD2Ev(ptr noundef nonnull align 8 dereferenceable(16) %3) #21
  resume { ptr, i32 } %27

_ZNK32pxrInternal_v0_24__pxrReserved__8TsSpline9GetTypeidEv.exit: ; preds = %2, %12, %18
  %.0.i = phi ptr [ @_ZTIv, %2 ], [ %11, %12 ], [ %11, %18 ]
  call void @llvm.lifetime.end.p0(i64 16, ptr nonnull %3)
  %28 = getelementptr inbounds nuw i8, ptr %.0.i, i64 8
  %29 = load ptr, ptr %28, align 8, !noalias !81
  %30 = load i8, ptr %29, align 1, !noalias !81
  %31 = icmp eq i8 %30, 42
  %.idx.i.i = zext i1 %31 to i64
  %32 = getelementptr inbounds i8, ptr %29, i64 %.idx.i.i
  call void @_ZN32pxrInternal_v0_24__pxrReserved__16ArchGetDemangledB5cxx11EPKc(ptr dead_on_unwind writable sret(%"class.std::__cxx11::basic_string") align 8 %0, ptr noundef nonnull %32)
  ret void
}